target datalayout = "e-m:e-p270:32:32-p271:32:32-p272:64:64-i64:64-i128:128-f80:128-n8:16:32:64-S128"
target triple = "x86_64-pc-linux-gnu"

%struct.gz_state = type { i32, i32, ptr, i64, i32, i32, ptr, ptr, ptr, i32, i32, i64, i64, i32, i32, i32, i32, i64, i32, i32, ptr, %struct.z_stream_s }
%struct.z_stream_s = type { ptr, i32, i64, ptr, i32, i64, ptr, ptr, ptr, ptr, ptr, i32, i64, i64 }

@.str.1 = private unnamed_addr constant [31 x i8] c"out of room to push characters\00", align 1

; Function Attrs: nounwind uwtable
define internal i32 @gz_skip(ptr noundef %0, i64 noundef %1) #0 {
  %3 = alloca i32, align 4
  %4 = alloca ptr, align 8
  %5 = alloca i64, align 8
  %6 = alloca i32, align 4
  %7 = alloca i32, align 4
  store ptr %0, ptr %4, align 8, !tbaa !3
  store i64 %1, ptr %5, align 8, !tbaa !31
  call void @llvm.lifetime.start.p0(i64 4, ptr %6) #8
  br label %8

8:                                                ; preds = %72, %2
  %9 = load i64, ptr %5, align 8, !tbaa !31
  %10 = icmp ne i64 %9, 0
  br i1 %10, label %11, label %73

11:                                               ; preds = %8
  %12 = load ptr, ptr %4, align 8, !tbaa !3
  %13 = getelementptr inbounds nuw %struct.gz_state, ptr %12, i32 0, i32 9
  %14 = load i32, ptr %13, align 8, !tbaa !20
  %15 = icmp ne i32 %14, 0
  br i1 %15, label %16, label %53

16:                                               ; preds = %11
  %17 = load ptr, ptr %4, align 8, !tbaa !3
  %18 = getelementptr inbounds nuw %struct.gz_state, ptr %17, i32 0, i32 9
  %19 = load i32, ptr %18, align 8, !tbaa !20
  %20 = zext i32 %19 to i64
  %21 = load i64, ptr %5, align 8, !tbaa !31
  %22 = icmp sgt i64 %20, %21
  br i1 %22, label %23, label %26

23:                                               ; preds = %16
  %24 = load i64, ptr %5, align 8, !tbaa !31
  %25 = trunc i64 %24 to i32
  br label %30

26:                                               ; preds = %16
  %27 = load ptr, ptr %4, align 8, !tbaa !3
  %28 = getelementptr inbounds nuw %struct.gz_state, ptr %27, i32 0, i32 9
  %29 = load i32, ptr %28, align 8, !tbaa !20
  br label %30

30:                                               ; preds = %26, %23
  %31 = phi i32 [ %25, %23 ], [ %29, %26 ]
  store i32 %31, ptr %6, align 4, !tbaa !7
  %32 = load i32, ptr %6, align 4, !tbaa !7
  %33 = load ptr, ptr %4, align 8, !tbaa !3
  %34 = getelementptr inbounds nuw %struct.gz_state, ptr %33, i32 0, i32 9
  %35 = load i32, ptr %34, align 8, !tbaa !20
  %36 = sub i32 %35, %32
  store i32 %36, ptr %34, align 8, !tbaa !20
  %37 = load i32, ptr %6, align 4, !tbaa !7
  %38 = load ptr, ptr %4, align 8, !tbaa !3
  %39 = getelementptr inbounds nuw %struct.gz_state, ptr %38, i32 0, i32 8
  %40 = load ptr, ptr %39, align 8, !tbaa !21
  %41 = zext i32 %37 to i64
  %42 = getelementptr inbounds nuw i8, ptr %40, i64 %41
  store ptr %42, ptr %39, align 8, !tbaa !21
  %43 = load i32, ptr %6, align 4, !tbaa !7
  %44 = zext i32 %43 to i64
  %45 = load ptr, ptr %4, align 8, !tbaa !3
  %46 = getelementptr inbounds nuw %struct.gz_state, ptr %45, i32 0, i32 3
  %47 = load i64, ptr %46, align 8, !tbaa !28
  %48 = add nsw i64 %47, %44
  store i64 %48, ptr %46, align 8, !tbaa !28
  %49 = load i32, ptr %6, align 4, !tbaa !7
  %50 = zext i32 %49 to i64
  %51 = load i64, ptr %5, align 8, !tbaa !31
  %52 = sub nsw i64 %51, %50
  store i64 %52, ptr %5, align 8, !tbaa !31
  br label %72

53:                                               ; preds = %11
  %54 = load ptr, ptr %4, align 8, !tbaa !3
  %55 = getelementptr inbounds nuw %struct.gz_state, ptr %54, i32 0, i32 10
  %56 = load i32, ptr %55, align 4, !tbaa !22
  %57 = icmp ne i32 %56, 0
  br i1 %57, label %58, label %65

58:                                               ; preds = %53
  %59 = load ptr, ptr %4, align 8, !tbaa !3
  %60 = getelementptr inbounds nuw %struct.gz_state, ptr %59, i32 0, i32 21
  %61 = getelementptr inbounds nuw %struct.z_stream_s, ptr %60, i32 0, i32 1
  %62 = load i32, ptr %61, align 8, !tbaa !32
  %63 = icmp eq i32 %62, 0
  br i1 %63, label %64, label %65

64:                                               ; preds = %58
  br label %73

65:                                               ; preds = %58, %53
  %66 = load ptr, ptr %4, align 8, !tbaa !3
  %67 = call i32 @gz_make(ptr noundef %66)
  %68 = icmp eq i32 %67, -1
  br i1 %68, label %69, label %70

69:                                               ; preds = %65
  store i32 -1, ptr %3, align 4
  store i32 1, ptr %7, align 4
  br label %74

70:                                               ; preds = %65
  br label %71

71:                                               ; preds = %70
  br label %72

72:                                               ; preds = %71, %30
  br label %8, !llvm.loop !33

73:                                               ; preds = %64, %8
  store i32 0, ptr %3, align 4
  store i32 1, ptr %7, align 4
  br label %74

74:                                               ; preds = %73, %69
  call void @llvm.lifetime.end.p0(i64 4, ptr %6) #8
  %75 = load i32, ptr %3, align 4
  ret i32 %75
}

; Function Attrs: nounwind uwtable
define i32 @gzungetc(i32 noundef %0, ptr noundef %1) #0 {
  %3 = alloca i32, align 4
  %4 = alloca i32, align 4
  %5 = alloca ptr, align 8
  %6 = alloca ptr, align 8
  %7 = alloca i32, align 4
  %8 = alloca ptr, align 8
  %9 = alloca ptr, align 8
  store i32 %0, ptr %4, align 4, !tbaa !7
  store ptr %1, ptr %5, align 8, !tbaa !3
  call void @llvm.lifetime.start.p0(i64 8, ptr %6) #8
  %10 = load ptr, ptr %5, align 8, !tbaa !3
  %11 = icmp eq ptr %10, null
  br i1 %11, label %12, label %13

12:                                               ; preds = %2
  store i32 -1, ptr %3, align 4
  store i32 1, ptr %7, align 4
  br label %149

13:                                               ; preds = %2
  %14 = load ptr, ptr %5, align 8, !tbaa !3
  store ptr %14, ptr %6, align 8, !tbaa !3
  %15 = load ptr, ptr %6, align 8, !tbaa !3
  %16 = getelementptr inbounds nuw %struct.gz_state, ptr %15, i32 0, i32 0
  %17 = load i32, ptr %16, align 8, !tbaa !11
  %18 = icmp ne i32 %17, 7247
  br i1 %18, label %24, label %19

19:                                               ; preds = %13
  %20 = load ptr, ptr %6, align 8, !tbaa !3
  %21 = getelementptr inbounds nuw %struct.gz_state, ptr %20, i32 0, i32 19
  %22 = load i32, ptr %21, align 4, !tbaa !17
  %23 = icmp ne i32 %22, 0
  br i1 %23, label %24, label %25

24:                                               ; preds = %19, %13
  store i32 -1, ptr %3, align 4
  store i32 1, ptr %7, align 4
  br label %149

25:                                               ; preds = %19
  %26 = load ptr, ptr %6, align 8, !tbaa !3
  %27 = getelementptr inbounds nuw %struct.gz_state, ptr %26, i32 0, i32 18
  %28 = load i32, ptr %27, align 8, !tbaa !18
  %29 = icmp ne i32 %28, 0
  br i1 %29, label %30, label %41

30:                                               ; preds = %25
  %31 = load ptr, ptr %6, align 8, !tbaa !3
  %32 = getelementptr inbounds nuw %struct.gz_state, ptr %31, i32 0, i32 18
  store i32 0, ptr %32, align 8, !tbaa !18
  %33 = load ptr, ptr %6, align 8, !tbaa !3
  %34 = load ptr, ptr %6, align 8, !tbaa !3
  %35 = getelementptr inbounds nuw %struct.gz_state, ptr %34, i32 0, i32 17
  %36 = load i64, ptr %35, align 8, !tbaa !19
  %37 = call i32 @gz_skip(ptr noundef %33, i64 noundef %36)
  %38 = icmp eq i32 %37, -1
  br i1 %38, label %39, label %40

39:                                               ; preds = %30
  store i32 -1, ptr %3, align 4
  store i32 1, ptr %7, align 4
  br label %149

40:                                               ; preds = %30
  br label %41

41:                                               ; preds = %40, %25
  %42 = load i32, ptr %4, align 4, !tbaa !7
  %43 = icmp slt i32 %42, 0
  br i1 %43, label %44, label %45

44:                                               ; preds = %41
  store i32 -1, ptr %3, align 4
  store i32 1, ptr %7, align 4
  br label %149

45:                                               ; preds = %41
  %46 = load ptr, ptr %6, align 8, !tbaa !3
  %47 = getelementptr inbounds nuw %struct.gz_state, ptr %46, i32 0, i32 9
  %48 = load i32, ptr %47, align 8, !tbaa !20
  %49 = icmp eq i32 %48, 0
  br i1 %49, label %50, label %76

50:                                               ; preds = %45
  %51 = load ptr, ptr %6, align 8, !tbaa !3
  %52 = getelementptr inbounds nuw %struct.gz_state, ptr %51, i32 0, i32 9
  store i32 1, ptr %52, align 8, !tbaa !20
  %53 = load ptr, ptr %6, align 8, !tbaa !3
  %54 = getelementptr inbounds nuw %struct.gz_state, ptr %53, i32 0, i32 7
  %55 = load ptr, ptr %54, align 8, !tbaa !34
  %56 = load ptr, ptr %6, align 8, !tbaa !3
  %57 = getelementptr inbounds nuw %struct.gz_state, ptr %56, i32 0, i32 4
  %58 = load i32, ptr %57, align 8, !tbaa !25
  %59 = shl i32 %58, 1
  %60 = zext i32 %59 to i64
  %61 = getelementptr inbounds nuw i8, ptr %55, i64 %60
  %62 = getelementptr inbounds i8, ptr %61, i64 -1
  %63 = load ptr, ptr %6, align 8, !tbaa !3
  %64 = getelementptr inbounds nuw %struct.gz_state, ptr %63, i32 0, i32 8
  store ptr %62, ptr %64, align 8, !tbaa !21
  %65 = load i32, ptr %4, align 4, !tbaa !7
  %66 = trunc i32 %65 to i8
  %67 = load ptr, ptr %6, align 8, !tbaa !3
  %68 = getelementptr inbounds nuw %struct.gz_state, ptr %67, i32 0, i32 8
  %69 = load ptr, ptr %68, align 8, !tbaa !21
  %70 = getelementptr inbounds i8, ptr %69, i64 0
  store i8 %66, ptr %70, align 1, !tbaa !44
  %71 = load ptr, ptr %6, align 8, !tbaa !3
  %72 = getelementptr inbounds nuw %struct.gz_state, ptr %71, i32 0, i32 3
  %73 = load i64, ptr %72, align 8, !tbaa !28
  %74 = add nsw i64 %73, -1
  store i64 %74, ptr %72, align 8, !tbaa !28
  %75 = load i32, ptr %4, align 4, !tbaa !7
  store i32 %75, ptr %3, align 4
  store i32 1, ptr %7, align 4
  br label %149

76:                                               ; preds = %45
  %77 = load ptr, ptr %6, align 8, !tbaa !3
  %78 = getelementptr inbounds nuw %struct.gz_state, ptr %77, i32 0, i32 9
  %79 = load i32, ptr %78, align 8, !tbaa !20
  %80 = load ptr, ptr %6, align 8, !tbaa !3
  %81 = getelementptr inbounds nuw %struct.gz_state, ptr %80, i32 0, i32 4
  %82 = load i32, ptr %81, align 8, !tbaa !25
  %83 = shl i32 %82, 1
  %84 = icmp eq i32 %79, %83
  br i1 %84, label %85, label %87

85:                                               ; preds = %76
  %86 = load ptr, ptr %6, align 8, !tbaa !3
  call void @gz_error(ptr noundef %86, i32 noundef -5, ptr noundef @.str.1)
  store i32 -1, ptr %3, align 4
  store i32 1, ptr %7, align 4
  br label %149

87:                                               ; preds = %76
  %88 = load ptr, ptr %6, align 8, !tbaa !3
  %89 = getelementptr inbounds nuw %struct.gz_state, ptr %88, i32 0, i32 8
  %90 = load ptr, ptr %89, align 8, !tbaa !21
  %91 = load ptr, ptr %6, align 8, !tbaa !3
  %92 = getelementptr inbounds nuw %struct.gz_state, ptr %91, i32 0, i32 7
  %93 = load ptr, ptr %92, align 8, !tbaa !34
  %94 = icmp eq ptr %90, %93
  br i1 %94, label %95, label %129

95:                                               ; preds = %87
  call void @llvm.lifetime.start.p0(i64 8, ptr %8) #8
  %96 = load ptr, ptr %6, align 8, !tbaa !3
  %97 = getelementptr inbounds nuw %struct.gz_state, ptr %96, i32 0, i32 7
  %98 = load ptr, ptr %97, align 8, !tbaa !34
  %99 = load ptr, ptr %6, align 8, !tbaa !3
  %100 = getelementptr inbounds nuw %struct.gz_state, ptr %99, i32 0, i32 9
  %101 = load i32, ptr %100, align 8, !tbaa !20
  %102 = zext i32 %101 to i64
  %103 = getelementptr inbounds nuw i8, ptr %98, i64 %102
  store ptr %103, ptr %8, align 8, !tbaa !35
  call void @llvm.lifetime.start.p0(i64 8, ptr %9) #8
  %104 = load ptr, ptr %6, align 8, !tbaa !3
  %105 = getelementptr inbounds nuw %struct.gz_state, ptr %104, i32 0, i32 7
  %106 = load ptr, ptr %105, align 8, !tbaa !34
  %107 = load ptr, ptr %6, align 8, !tbaa !3
  %108 = getelementptr inbounds nuw %struct.gz_state, ptr %107, i32 0, i32 4
  %109 = load i32, ptr %108, align 8, !tbaa !25
  %110 = shl i32 %109, 1
  %111 = zext i32 %110 to i64
  %112 = getelementptr inbounds nuw i8, ptr %106, i64 %111
  store ptr %112, ptr %9, align 8, !tbaa !35
  br label %113

113:                                              ; preds = %119, %95
  %114 = load ptr, ptr %8, align 8, !tbaa !35
  %115 = load ptr, ptr %6, align 8, !tbaa !3
  %116 = getelementptr inbounds nuw %struct.gz_state, ptr %115, i32 0, i32 7
  %117 = load ptr, ptr %116, align 8, !tbaa !34
  %118 = icmp ugt ptr %114, %117
  br i1 %118, label %119, label %125

119:                                              ; preds = %113
  %120 = load ptr, ptr %8, align 8, !tbaa !35
  %121 = getelementptr inbounds i8, ptr %120, i32 -1
  store ptr %121, ptr %8, align 8, !tbaa !35
  %122 = load i8, ptr %121, align 1, !tbaa !44
  %123 = load ptr, ptr %9, align 8, !tbaa !35
  %124 = getelementptr inbounds i8, ptr %123, i32 -1
  store ptr %124, ptr %9, align 8, !tbaa !35
  store i8 %122, ptr %124, align 1, !tbaa !44
  br label %113, !llvm.loop !45

125:                                              ; preds = %113
  %126 = load ptr, ptr %9, align 8, !tbaa !35
  %127 = load ptr, ptr %6, align 8, !tbaa !3
  %128 = getelementptr inbounds nuw %struct.gz_state, ptr %127, i32 0, i32 8
  store ptr %126, ptr %128, align 8, !tbaa !21
  call void @llvm.lifetime.end.p0(i64 8, ptr %9) #8
  call void @llvm.lifetime.end.p0(i64 8, ptr %8) #8
  br label %129

129:                                              ; preds = %125, %87
  %130 = load ptr, ptr %6, align 8, !tbaa !3
  %131 = getelementptr inbounds nuw %struct.gz_state, ptr %130, i32 0, i32 9
  %132 = load i32, ptr %131, align 8, !tbaa !20
  %133 = add i32 %132, 1
  store i32 %133, ptr %131, align 8, !tbaa !20
  %134 = load ptr, ptr %6, align 8, !tbaa !3
  %135 = getelementptr inbounds nuw %struct.gz_state, ptr %134, i32 0, i32 8
  %136 = load ptr, ptr %135, align 8, !tbaa !21
  %137 = getelementptr inbounds i8, ptr %136, i32 -1
  store ptr %137, ptr %135, align 8, !tbaa !21
  %138 = load i32, ptr %4, align 4, !tbaa !7
  %139 = trunc i32 %138 to i8
  %140 = load ptr, ptr %6, align 8, !tbaa !3
  %141 = getelementptr inbounds nuw %struct.gz_state, ptr %140, i32 0, i32 8
  %142 = load ptr, ptr %141, align 8, !tbaa !21
  %143 = getelementptr inbounds i8, ptr %142, i64 0
  store i8 %139, ptr %143, align 1, !tbaa !44
  %144 = load ptr, ptr %6, align 8, !tbaa !3
  %145 = getelementptr inbounds nuw %struct.gz_state, ptr %144, i32 0, i32 3
  %146 = load i64, ptr %145, align 8, !tbaa !28
  %147 = add nsw i64 %146, -1
  store i64 %147, ptr %145, align 8, !tbaa !28
  %148 = load i32, ptr %4, align 4, !tbaa !7
  store i32 %148, ptr %3, align 4
  store i32 1, ptr %7, align 4
  br label %149

149:                                              ; preds = %129, %85, %50, %44, %39, %24, %12
  call void @llvm.lifetime.end.p0(i64 8, ptr %6) #8
  %150 = load i32, ptr %3, align 4
  ret i32 %150
}