; Function Attrs: nounwind uwtable
define range(i32 -1, -2147483648) i32 @gzungetc(i32 noundef %0, ptr noundef %1) local_unnamed_addr #0 {
  %3 = icmp eq ptr %1, null
  br i1 %3, label %gz_skip.exit.thread, label %4

4:                                                ; preds = %2
  %5 = load i32, ptr %1, align 8, !tbaa !3
  %.not = icmp eq i32 %5, 7247
  br i1 %.not, label %6, label %gz_skip.exit.thread

6:                                                ; preds = %4
  %7 = getelementptr inbounds nuw i8, ptr %1, i64 108
  %8 = load i32, ptr %7, align 4, !tbaa !13
  %.not46 = icmp eq i32 %8, 0
  br i1 %.not46, label %9, label %gz_skip.exit.thread

9:                                                ; preds = %6
  %10 = getelementptr inbounds nuw i8, ptr %1, i64 104
  %11 = load i32, ptr %10, align 8, !tbaa !14
  %.not47 = icmp eq i32 %11, 0
  br i1 %.not47, label %43, label %12

12:                                               ; preds = %9
  store i32 0, ptr %10, align 8, !tbaa !14
  %13 = getelementptr inbounds nuw i8, ptr %1, i64 96
  %14 = load i64, ptr %13, align 8, !tbaa !15
  %15 = getelementptr inbounds nuw i8, ptr %1, i64 128
  %.not21.i = icmp eq i64 %14, 0
  br i1 %.not21.i, label %gz_skip.exit, label %.lr.ph.i

.lr.ph.i:                                         ; preds = %12
  %16 = getelementptr inbounds nuw i8, ptr %1, i64 56
  %17 = getelementptr inbounds nuw i8, ptr %1, i64 48
  %18 = getelementptr inbounds nuw i8, ptr %1, i64 16
  %19 = getelementptr inbounds nuw i8, ptr %1, i64 60
  br label %20

20:                                               ; preds = %41, %.lr.ph.i
  %.01722.i = phi i64 [ %14, %.lr.ph.i ], [ %.1.i, %41 ]
  %21 = load i32, ptr %16, align 8, !tbaa !16
  %.not19.i = icmp eq i32 %21, 0
  br i1 %.not19.i, label %33, label %22

22:                                               ; preds = %20
  %23 = zext i32 %21 to i64
  %24 = tail call i64 @llvm.smin.i64(i64 %.01722.i, i64 %23)
  %25 = trunc i64 %24 to i32
  %26 = sub i32 %21, %25
  store i32 %26, ptr %16, align 8, !tbaa !16
  %27 = load ptr, ptr %17, align 8, !tbaa !17
  %28 = and i64 %24, 4294967295
  %29 = getelementptr inbounds nuw i8, ptr %27, i64 %28
  store ptr %29, ptr %17, align 8, !tbaa !17
  %30 = load i64, ptr %18, align 8, !tbaa !18
  %31 = add nsw i64 %30, %28
  store i64 %31, ptr %18, align 8, !tbaa !18
  %32 = sub nsw i64 %.01722.i, %28
  br label %41

33:                                               ; preds = %20
  %34 = load i32, ptr %19, align 4, !tbaa !19
  %.not20.i = icmp eq i32 %34, 0
  br i1 %.not20.i, label %38, label %35

35:                                               ; preds = %33
  %36 = load i32, ptr %15, align 8, !tbaa !20
  %37 = icmp eq i32 %36, 0
  br i1 %37, label %gz_skip.exit, label %38

38:                                               ; preds = %35, %33
  %39 = tail call fastcc i32 @gz_make(ptr noundef nonnull %1)
  %40 = icmp eq i32 %39, -1
  br i1 %40, label %gz_skip.exit.thread, label %41

41:                                               ; preds = %38, %22
  %.1.i = phi i64 [ %32, %22 ], [ %.01722.i, %38 ]
  %.not.i = icmp eq i64 %.1.i, 0
  br i1 %.not.i, label %gz_skip.exit, label %20, !llvm.loop !21

gz_skip.exit:                                     ; preds = %35, %41, %12
  %42 = icmp slt i32 %0, 0
  br i1 %42, label %gz_skip.exit.thread, label %44

43:                                               ; preds = %9
  %.old = icmp slt i32 %0, 0
  br i1 %.old, label %gz_skip.exit.thread, label %44

44:                                               ; preds = %gz_skip.exit, %43
  %45 = getelementptr inbounds nuw i8, ptr %1, i64 56
  %46 = load i32, ptr %45, align 8, !tbaa !16
  %47 = icmp eq i32 %46, 0
  br i1 %47, label %48, label %62

48:                                               ; preds = %44
  store i32 1, ptr %45, align 8, !tbaa !16
  %49 = getelementptr inbounds nuw i8, ptr %1, i64 40
  %50 = load ptr, ptr %49, align 8, !tbaa !32
  %51 = getelementptr inbounds nuw i8, ptr %1, i64 24
  %52 = load i32, ptr %51, align 8, !tbaa !25
  %53 = shl i32 %52, 1
  %54 = zext i32 %53 to i64
  %55 = getelementptr inbounds nuw i8, ptr %50, i64 %54
  %56 = getelementptr inbounds i8, ptr %55, i64 -1
  %57 = getelementptr inbounds nuw i8, ptr %1, i64 48
  store ptr %56, ptr %57, align 8, !tbaa !17
  %58 = trunc i32 %0 to i8
  store i8 %58, ptr %56, align 1, !tbaa !40
  %59 = getelementptr inbounds nuw i8, ptr %1, i64 16
  %60 = load i64, ptr %59, align 8, !tbaa !18
  %61 = add nsw i64 %60, -1
  store i64 %61, ptr %59, align 8, !tbaa !18
  br label %gz_skip.exit.thread

62:                                               ; preds = %44
  %63 = getelementptr inbounds nuw i8, ptr %1, i64 24
  %64 = load i32, ptr %63, align 8, !tbaa !25
  %65 = shl i32 %64, 1
  %66 = icmp eq i32 %46, %65
  br i1 %66, label %67, label %68

67:                                               ; preds = %62
  tail call void @gz_error(ptr noundef nonnull %1, i32 noundef -5, ptr noundef nonnull @.str.1) #12
  br label %gz_skip.exit.thread

68:                                               ; preds = %62
  %69 = getelementptr inbounds nuw i8, ptr %1, i64 48
  %70 = load ptr, ptr %69, align 8, !tbaa !17
  %71 = getelementptr inbounds nuw i8, ptr %1, i64 40
  %72 = load ptr, ptr %71, align 8, !tbaa !32
  %73 = icmp eq ptr %70, %72
  br i1 %73, label %74, label %._crit_edge

74:                                               ; preds = %68
  %75 = zext i32 %46 to i64
  %76 = getelementptr inbounds nuw i8, ptr %72, i64 %75
  %77 = zext i32 %65 to i64
  %78 = getelementptr inbounds nuw i8, ptr %72, i64 %77
  %79 = icmp ugt ptr %76, %70
  br i1 %79, label %.lr.ph, label %._crit_edge

.lr.ph:                                           ; preds = %74, %.lr.ph
  %.051 = phi ptr [ %82, %.lr.ph ], [ %78, %74 ]
  %.03950 = phi ptr [ %80, %.lr.ph ], [ %76, %74 ]
  %80 = getelementptr inbounds i8, ptr %.03950, i64 -1
  %81 = load i8, ptr %80, align 1, !tbaa !40
  %82 = getelementptr inbounds i8, ptr %.051, i64 -1
  store i8 %81, ptr %82, align 1, !tbaa !40
  %83 = load ptr, ptr %71, align 8, !tbaa !32
  %84 = icmp ugt ptr %80, %83
  br i1 %84, label %.lr.ph, label %._crit_edge.loopexit, !llvm.loop !41

._crit_edge.loopexit:                             ; preds = %.lr.ph
  %.pre.pre = load i32, ptr %45, align 8, !tbaa !16
  br label %._crit_edge

._crit_edge:                                      ; preds = %74, %._crit_edge.loopexit, %68
  %85 = phi ptr [ %70, %68 ], [ %78, %74 ], [ %82, %._crit_edge.loopexit ]
  %86 = phi i32 [ %46, %68 ], [ %46, %74 ], [ %.pre.pre, %._crit_edge.loopexit ]
  %87 = add i32 %86, 1
  store i32 %87, ptr %45, align 8, !tbaa !16
  %88 = getelementptr inbounds i8, ptr %85, i64 -1
  store ptr %88, ptr %69, align 8, !tbaa !17
  %89 = trunc i32 %0 to i8
  store i8 %89, ptr %88, align 1, !tbaa !40
  %90 = getelementptr inbounds nuw i8, ptr %1, i64 16
  %91 = load i64, ptr %90, align 8, !tbaa !18
  %92 = add nsw i64 %91, -1
  store i64 %92, ptr %90, align 8, !tbaa !18
  br label %gz_skip.exit.thread

gz_skip.exit.thread:                              ; preds = %38, %43, %gz_skip.exit, %4, %6, %2, %._crit_edge, %67, %48
  %.040 = phi i32 [ %0, %48 ], [ -1, %67 ], [ %0, %._crit_edge ], [ -1, %2 ], [ -1, %6 ], [ -1, %4 ], [ -1, %gz_skip.exit ], [ -1, %43 ], [ -1, %38 ]
  ret i32 %.040
}